; Function Attrs: mustprogress nounwind uwtable
define void @_Z22gmx_ana_indexgrps_freeP19gmx_ana_indexgrps_t(ptr noundef %0) local_unnamed_addr #10 {
  %2 = icmp eq ptr %0, null
  br i1 %2, label %4, label %3

3:                                                ; preds = %1
  tail call void @_ZN19gmx_ana_indexgrps_tD2Ev(ptr noundef nonnull align 8 dereferenceable(48) %0) #28
  tail call void @_ZdlPvm(ptr noundef nonnull %0, i64 noundef 48) #25
  br label %4

4:                                                ; preds = %3, %1
  ret void
}